; Function Attrs: mustprogress uwtable
define void @_ZN32pxrInternal_v0_24__pxrReserved__22Pcp_LayerStackRegistryC2ERKNS_23PcpLayerStackIdentifierERKNSt7__cxx1112basic_stringIcSt11char_traitsIcESaIcEEEb(ptr noundef nonnull align 8 dereferenceable(32) %0, ptr noundef nonnull align 8 dereferenceable(80) %1, ptr noundef nonnull align 8 dereferenceable(32) %2, i1 noundef zeroext %3) unnamed_addr #0 align 2 personality ptr @__gxx_personality_v0 {
  %5 = getelementptr inbounds nuw i8, ptr %0, i64 8
  store i32 1, ptr %5, align 8
  %6 = getelementptr inbounds i8, ptr %0, i64 16
  store ptr null, ptr %6, align 8
  store ptr getelementptr inbounds inrange(-16, 16) (i8, ptr @_ZTVN32pxrInternal_v0_24__pxrReserved__22Pcp_LayerStackRegistryE, i64 16), ptr %0, align 8
  %7 = invoke noalias noundef nonnull dereferenceable(488) ptr @_Znwm(i64 noundef 488) #18
          to label %8 unwind label %11

8:                                                ; preds = %4
  invoke void @_ZN32pxrInternal_v0_24__pxrReserved__26Pcp_LayerStackRegistryDataC2ERKNS_23PcpLayerStackIdentifierERKNSt7__cxx1112basic_stringIcSt11char_traitsIcESaIcEEEb(ptr noundef nonnull align 8 dereferenceable(488) %7, ptr noundef nonnull align 8 dereferenceable(80) %1, ptr noundef nonnull align 8 dereferenceable(32) %2, i1 noundef zeroext %3)
          to label %9 unwind label %13

9:                                                ; preds = %8
  %10 = getelementptr inbounds nuw i8, ptr %0, i64 24
  store ptr %7, ptr %10, align 8
  ret void

11:                                               ; preds = %4
  %12 = landingpad { ptr, i32 }
          cleanup
  br label %15

13:                                               ; preds = %8
  %14 = landingpad { ptr, i32 }
          cleanup
  tail call void @_ZdlPvm(ptr noundef nonnull %7, i64 noundef 488) #19
  br label %15

15:                                               ; preds = %13, %11
  %.pn = phi { ptr, i32 } [ %14, %13 ], [ %12, %11 ]
  tail call void @_ZN32pxrInternal_v0_24__pxrReserved__10TfWeakBaseD2Ev(ptr noundef nonnull align 8 dereferenceable(8) %6) #20
  tail call void @_ZN32pxrInternal_v0_24__pxrReserved__9TfRefBaseD2Ev(ptr noundef nonnull align 8 dereferenceable(12) %0) #20
  resume { ptr, i32 } %.pn
}